target datalayout = "e-m:e-p270:32:32-p271:32:32-p272:64:64-i64:64-i128:128-f80:128-n8:16:32:64-S128"
target triple = "x86_64-pc-linux-gnu"

; Function Attrs: inlinehint nounwind uwtable
define internal i64 @value_barrier_64(i64 noundef %0) #3 {
  %2 = alloca i64, align 8
  %3 = alloca i64, align 8
  store i64 %0, ptr %2, align 8, !tbaa !8
  call void @llvm.lifetime.start.p0(i64 8, ptr %3) #4
  %4 = load i64, ptr %2, align 8, !tbaa !8
  %5 = call i64 asm "", "=r,0,~{dirflag},~{fpsr},~{flags}"(i64 %4) #5, !srcloc !20
  store i64 %5, ptr %3, align 8, !tbaa !8
  %6 = load i64, ptr %3, align 8, !tbaa !8
  call void @llvm.lifetime.end.p0(i64 8, ptr %3) #4
  ret i64 %6
}

; Function Attrs: inlinehint nounwind uwtable
define internal i64 @constant_time_select_64(i64 noundef %0, i64 noundef %1, i64 noundef %2) #3 {
  %4 = alloca i64, align 8
  %5 = alloca i64, align 8
  %6 = alloca i64, align 8
  store i64 %0, ptr %4, align 8, !tbaa !8
  store i64 %1, ptr %5, align 8, !tbaa !8
  store i64 %2, ptr %6, align 8, !tbaa !8
  %7 = load i64, ptr %4, align 8, !tbaa !8
  %8 = call i64 @value_barrier_64(i64 noundef %7)
  %9 = load i64, ptr %5, align 8, !tbaa !8
  %10 = and i64 %8, %9
  %11 = load i64, ptr %4, align 8, !tbaa !8
  %12 = xor i64 %11, -1
  %13 = call i64 @value_barrier_64(i64 noundef %12)
  %14 = load i64, ptr %6, align 8, !tbaa !8
  %15 = and i64 %13, %14
  %16 = or i64 %10, %15
  ret i64 %16
}

; Function Attrs: inlinehint nounwind uwtable
define internal void @bn_select_words(ptr noundef %0, i64 noundef %1, ptr noundef %2, ptr noundef %3, i64 noundef %4) #3 {
  %6 = alloca ptr, align 8
  %7 = alloca i64, align 8
  %8 = alloca ptr, align 8
  %9 = alloca ptr, align 8
  %10 = alloca i64, align 8
  %11 = alloca i64, align 8
  store ptr %0, ptr %6, align 8, !tbaa !3
  store i64 %1, ptr %7, align 8, !tbaa !8
  store ptr %2, ptr %8, align 8, !tbaa !3
  store ptr %3, ptr %9, align 8, !tbaa !3
  store i64 %4, ptr %10, align 8, !tbaa !8
  call void @llvm.lifetime.start.p0(i64 8, ptr %11) #4
  store i64 0, ptr %11, align 8, !tbaa !8
  br label %12

12:                                               ; preds = %30, %5
  %13 = load i64, ptr %11, align 8, !tbaa !8
  %14 = load i64, ptr %10, align 8, !tbaa !8
  %15 = icmp ult i64 %13, %14
  br i1 %15, label %16, label %33

16:                                               ; preds = %12
  %17 = load i64, ptr %7, align 8, !tbaa !8
  %18 = load ptr, ptr %8, align 8, !tbaa !3
  %19 = load i64, ptr %11, align 8, !tbaa !8
  %20 = getelementptr inbounds nuw i64, ptr %18, i64 %19
  %21 = load i64, ptr %20, align 8, !tbaa !8
  %22 = load ptr, ptr %9, align 8, !tbaa !3
  %23 = load i64, ptr %11, align 8, !tbaa !8
  %24 = getelementptr inbounds nuw i64, ptr %22, i64 %23
  %25 = load i64, ptr %24, align 8, !tbaa !8
  %26 = call i64 @constant_time_select_64(i64 noundef %17, i64 noundef %21, i64 noundef %25)
  %27 = load ptr, ptr %6, align 8, !tbaa !3
  %28 = load i64, ptr %11, align 8, !tbaa !8
  %29 = getelementptr inbounds nuw i64, ptr %27, i64 %28
  store i64 %26, ptr %29, align 8, !tbaa !8
  br label %30

30:                                               ; preds = %16
  %31 = load i64, ptr %11, align 8, !tbaa !8
  %32 = add i64 %31, 1
  store i64 %32, ptr %11, align 8, !tbaa !8
  br label %12, !llvm.loop !19

33:                                               ; preds = %12
  call void @llvm.lifetime.end.p0(i64 8, ptr %11) #4
  ret void
}

; Function Attrs: inlinehint nounwind uwtable
define internal i64 @bn_reduce_once_in_place(ptr noundef %0, i64 noundef %1, ptr noundef %2, ptr noundef %3, i64 noundef %4) #3 {
  %6 = alloca ptr, align 8
  %7 = alloca i64, align 8
  %8 = alloca ptr, align 8
  %9 = alloca ptr, align 8
  %10 = alloca i64, align 8
  store ptr %0, ptr %6, align 8, !tbaa !3
  store i64 %1, ptr %7, align 8, !tbaa !8
  store ptr %2, ptr %8, align 8, !tbaa !3
  store ptr %3, ptr %9, align 8, !tbaa !3
  store i64 %4, ptr %10, align 8, !tbaa !8
  %11 = load ptr, ptr %9, align 8, !tbaa !3
  %12 = load ptr, ptr %6, align 8, !tbaa !3
  %13 = load ptr, ptr %8, align 8, !tbaa !3
  %14 = load i64, ptr %10, align 8, !tbaa !8
  %15 = trunc i64 %14 to i32
  %16 = call i64 @bn_sub_words(ptr noundef %11, ptr noundef %12, ptr noundef %13, i32 noundef %15)
  %17 = load i64, ptr %7, align 8, !tbaa !8
  %18 = sub i64 %17, %16
  store i64 %18, ptr %7, align 8, !tbaa !8
  %19 = load ptr, ptr %6, align 8, !tbaa !3
  %20 = load i64, ptr %7, align 8, !tbaa !8
  %21 = load ptr, ptr %6, align 8, !tbaa !3
  %22 = load ptr, ptr %9, align 8, !tbaa !3
  %23 = load i64, ptr %10, align 8, !tbaa !8
  call void @bn_select_words(ptr noundef %19, i64 noundef %20, ptr noundef %21, ptr noundef %22, i64 noundef %23)
  %24 = load i64, ptr %7, align 8, !tbaa !8
  ret i64 %24
}

; Function Attrs: nounwind uwtable
define void @RSAZ_512_mod_exp(ptr noundef %0, ptr noundef %1, ptr noundef %2, ptr noundef %3, i64 noundef %4, ptr noundef %5) #0 {
  %7 = alloca ptr, align 8
  %8 = alloca ptr, align 8
  %9 = alloca ptr, align 8
  %10 = alloca ptr, align 8
  %11 = alloca i64, align 8
  %12 = alloca ptr, align 8
  %13 = alloca [1216 x i8], align 16
  %14 = alloca ptr, align 8
  %15 = alloca ptr, align 8
  %16 = alloca ptr, align 8
  %17 = alloca ptr, align 8
  %18 = alloca i32, align 4
  %19 = alloca i32, align 4
  %20 = alloca [8 x i64], align 16
  store ptr %0, ptr %7, align 8, !tbaa !3
  store ptr %1, ptr %8, align 8, !tbaa !3
  store ptr %2, ptr %9, align 8, !tbaa !3
  store ptr %3, ptr %10, align 8, !tbaa !3
  store i64 %4, ptr %11, align 8, !tbaa !8
  store ptr %5, ptr %12, align 8, !tbaa !3
  call void @llvm.lifetime.start.p0(i64 1216, ptr %13) #4
  call void @llvm.lifetime.start.p0(i64 8, ptr %14) #4
  %21 = getelementptr inbounds [1216 x i8], ptr %13, i64 0, i64 0
  %22 = getelementptr inbounds [1216 x i8], ptr %13, i64 0, i64 0
  %23 = ptrtoint ptr %22 to i64
  %24 = urem i64 %23, 64
  %25 = sub i64 64, %24
  %26 = getelementptr inbounds nuw i8, ptr %21, i64 %25
  store ptr %26, ptr %14, align 8, !tbaa !10
  call void @llvm.lifetime.start.p0(i64 8, ptr %15) #4
  %27 = load ptr, ptr %14, align 8, !tbaa !10
  %28 = getelementptr inbounds i8, ptr %27, i64 1024
  store ptr %28, ptr %15, align 8, !tbaa !3
  call void @llvm.lifetime.start.p0(i64 8, ptr %16) #4
  %29 = load ptr, ptr %14, align 8, !tbaa !10
  %30 = getelementptr inbounds i8, ptr %29, i64 1024
  %31 = getelementptr inbounds i8, ptr %30, i64 64
  store ptr %31, ptr %16, align 8, !tbaa !3
  call void @llvm.lifetime.start.p0(i64 8, ptr %17) #4
  %32 = load ptr, ptr %9, align 8, !tbaa !3
  store ptr %32, ptr %17, align 8, !tbaa !10
  call void @llvm.lifetime.start.p0(i64 4, ptr %18) #4
  call void @llvm.lifetime.start.p0(i64 4, ptr %19) #4
  call void @llvm.lifetime.start.p0(i64 64, ptr %20) #4
  %33 = load ptr, ptr %10, align 8, !tbaa !3
  %34 = getelementptr inbounds i64, ptr %33, i64 0
  %35 = load i64, ptr %34, align 8, !tbaa !8
  %36 = sub i64 0, %35
  %37 = load ptr, ptr %16, align 8, !tbaa !3
  %38 = getelementptr inbounds i64, ptr %37, i64 0
  store i64 %36, ptr %38, align 8, !tbaa !8
  %39 = load ptr, ptr %10, align 8, !tbaa !3
  %40 = getelementptr inbounds i64, ptr %39, i64 1
  %41 = load i64, ptr %40, align 8, !tbaa !8
  %42 = xor i64 %41, -1
  %43 = load ptr, ptr %16, align 8, !tbaa !3
  %44 = getelementptr inbounds i64, ptr %43, i64 1
  store i64 %42, ptr %44, align 8, !tbaa !8
  %45 = load ptr, ptr %10, align 8, !tbaa !3
  %46 = getelementptr inbounds i64, ptr %45, i64 2
  %47 = load i64, ptr %46, align 8, !tbaa !8
  %48 = xor i64 %47, -1
  %49 = load ptr, ptr %16, align 8, !tbaa !3
  %50 = getelementptr inbounds i64, ptr %49, i64 2
  store i64 %48, ptr %50, align 8, !tbaa !8
  %51 = load ptr, ptr %10, align 8, !tbaa !3
  %52 = getelementptr inbounds i64, ptr %51, i64 3
  %53 = load i64, ptr %52, align 8, !tbaa !8
  %54 = xor i64 %53, -1
  %55 = load ptr, ptr %16, align 8, !tbaa !3
  %56 = getelementptr inbounds i64, ptr %55, i64 3
  store i64 %54, ptr %56, align 8, !tbaa !8
  %57 = load ptr, ptr %10, align 8, !tbaa !3
  %58 = getelementptr inbounds i64, ptr %57, i64 4
  %59 = load i64, ptr %58, align 8, !tbaa !8
  %60 = xor i64 %59, -1
  %61 = load ptr, ptr %16, align 8, !tbaa !3
  %62 = getelementptr inbounds i64, ptr %61, i64 4
  store i64 %60, ptr %62, align 8, !tbaa !8
  %63 = load ptr, ptr %10, align 8, !tbaa !3
  %64 = getelementptr inbounds i64, ptr %63, i64 5
  %65 = load i64, ptr %64, align 8, !tbaa !8
  %66 = xor i64 %65, -1
  %67 = load ptr, ptr %16, align 8, !tbaa !3
  %68 = getelementptr inbounds i64, ptr %67, i64 5
  store i64 %66, ptr %68, align 8, !tbaa !8
  %69 = load ptr, ptr %10, align 8, !tbaa !3
  %70 = getelementptr inbounds i64, ptr %69, i64 6
  %71 = load i64, ptr %70, align 8, !tbaa !8
  %72 = xor i64 %71, -1
  %73 = load ptr, ptr %16, align 8, !tbaa !3
  %74 = getelementptr inbounds i64, ptr %73, i64 6
  store i64 %72, ptr %74, align 8, !tbaa !8
  %75 = load ptr, ptr %10, align 8, !tbaa !3
  %76 = getelementptr inbounds i64, ptr %75, i64 7
  %77 = load i64, ptr %76, align 8, !tbaa !8
  %78 = xor i64 %77, -1
  %79 = load ptr, ptr %16, align 8, !tbaa !3
  %80 = getelementptr inbounds i64, ptr %79, i64 7
  store i64 %78, ptr %80, align 8, !tbaa !8
  %81 = load ptr, ptr %14, align 8, !tbaa !10
  %82 = load ptr, ptr %16, align 8, !tbaa !3
  call void @rsaz_512_scatter4(ptr noundef %81, ptr noundef %82, i32 noundef 0)
  %83 = load ptr, ptr %15, align 8, !tbaa !3
  %84 = load ptr, ptr %8, align 8, !tbaa !3
  %85 = load ptr, ptr %12, align 8, !tbaa !3
  %86 = load ptr, ptr %10, align 8, !tbaa !3
  %87 = load i64, ptr %11, align 8, !tbaa !8
  call void @rsaz_512_mul(ptr noundef %83, ptr noundef %84, ptr noundef %85, ptr noundef %86, i64 noundef %87)
  %88 = load ptr, ptr %14, align 8, !tbaa !10
  %89 = load ptr, ptr %15, align 8, !tbaa !3
  call void @rsaz_512_scatter4(ptr noundef %88, ptr noundef %89, i32 noundef 1)
  %90 = load ptr, ptr %16, align 8, !tbaa !3
  %91 = load ptr, ptr %15, align 8, !tbaa !3
  %92 = load ptr, ptr %10, align 8, !tbaa !3
  %93 = load i64, ptr %11, align 8, !tbaa !8
  call void @rsaz_512_sqr(ptr noundef %90, ptr noundef %91, ptr noundef %92, i64 noundef %93, i32 noundef 1)
  %94 = load ptr, ptr %14, align 8, !tbaa !10
  %95 = load ptr, ptr %16, align 8, !tbaa !3
  call void @rsaz_512_scatter4(ptr noundef %94, ptr noundef %95, i32 noundef 2)
  store i32 3, ptr %18, align 4, !tbaa !13
  br label %96

96:                                               ; preds = %106, %6
  %97 = load i32, ptr %18, align 4, !tbaa !13
  %98 = icmp slt i32 %97, 16
  br i1 %98, label %99, label %109

99:                                               ; preds = %96
  %100 = load ptr, ptr %16, align 8, !tbaa !3
  %101 = load ptr, ptr %15, align 8, !tbaa !3
  %102 = load ptr, ptr %10, align 8, !tbaa !3
  %103 = load i64, ptr %11, align 8, !tbaa !8
  %104 = load ptr, ptr %14, align 8, !tbaa !10
  %105 = load i32, ptr %18, align 4, !tbaa !13
  call void @rsaz_512_mul_scatter4(ptr noundef %100, ptr noundef %101, ptr noundef %102, i64 noundef %103, ptr noundef %104, i32 noundef %105)
  br label %106

106:                                              ; preds = %99
  %107 = load i32, ptr %18, align 4, !tbaa !13
  %108 = add nsw i32 %107, 1
  store i32 %108, ptr %18, align 4, !tbaa !13
  br label %96, !llvm.loop !17

109:                                              ; preds = %96
  %110 = load ptr, ptr %17, align 8, !tbaa !10
  %111 = getelementptr inbounds i8, ptr %110, i64 63
  %112 = load i8, ptr %111, align 1, !tbaa !12
  %113 = zext i8 %112 to i32
  store i32 %113, ptr %19, align 4, !tbaa !13
  %114 = load ptr, ptr %16, align 8, !tbaa !3
  %115 = load ptr, ptr %14, align 8, !tbaa !10
  %116 = load i32, ptr %19, align 4, !tbaa !13
  %117 = lshr i32 %116, 4
  call void @rsaz_512_gather4(ptr noundef %114, ptr noundef %115, i32 noundef %117)
  %118 = load ptr, ptr %16, align 8, !tbaa !3
  %119 = load ptr, ptr %16, align 8, !tbaa !3
  %120 = load ptr, ptr %10, align 8, !tbaa !3
  %121 = load i64, ptr %11, align 8, !tbaa !8
  call void @rsaz_512_sqr(ptr noundef %118, ptr noundef %119, ptr noundef %120, i64 noundef %121, i32 noundef 4)
  %122 = load ptr, ptr %16, align 8, !tbaa !3
  %123 = load ptr, ptr %16, align 8, !tbaa !3
  %124 = load ptr, ptr %14, align 8, !tbaa !10
  %125 = load ptr, ptr %10, align 8, !tbaa !3
  %126 = load i64, ptr %11, align 8, !tbaa !8
  %127 = load i32, ptr %19, align 4, !tbaa !13
  %128 = and i32 %127, 15
  call void @rsaz_512_mul_gather4(ptr noundef %122, ptr noundef %123, ptr noundef %124, ptr noundef %125, i64 noundef %126, i32 noundef %128)
  store i32 62, ptr %18, align 4, !tbaa !13
  br label %129

129:                                              ; preds = %161, %109
  %130 = load i32, ptr %18, align 4, !tbaa !13
  %131 = icmp sge i32 %130, 0
  br i1 %131, label %132, label %164

132:                                              ; preds = %129
  %133 = load ptr, ptr %17, align 8, !tbaa !10
  %134 = load i32, ptr %18, align 4, !tbaa !13
  %135 = sext i32 %134 to i64
  %136 = getelementptr inbounds i8, ptr %133, i64 %135
  %137 = load i8, ptr %136, align 1, !tbaa !12
  %138 = zext i8 %137 to i32
  store i32 %138, ptr %19, align 4, !tbaa !13
  %139 = load ptr, ptr %16, align 8, !tbaa !3
  %140 = load ptr, ptr %16, align 8, !tbaa !3
  %141 = load ptr, ptr %10, align 8, !tbaa !3
  %142 = load i64, ptr %11, align 8, !tbaa !8
  call void @rsaz_512_sqr(ptr noundef %139, ptr noundef %140, ptr noundef %141, i64 noundef %142, i32 noundef 4)
  %143 = load ptr, ptr %16, align 8, !tbaa !3
  %144 = load ptr, ptr %16, align 8, !tbaa !3
  %145 = load ptr, ptr %14, align 8, !tbaa !10
  %146 = load ptr, ptr %10, align 8, !tbaa !3
  %147 = load i64, ptr %11, align 8, !tbaa !8
  %148 = load i32, ptr %19, align 4, !tbaa !13
  %149 = lshr i32 %148, 4
  call void @rsaz_512_mul_gather4(ptr noundef %143, ptr noundef %144, ptr noundef %145, ptr noundef %146, i64 noundef %147, i32 noundef %149)
  %150 = load ptr, ptr %16, align 8, !tbaa !3
  %151 = load ptr, ptr %16, align 8, !tbaa !3
  %152 = load ptr, ptr %10, align 8, !tbaa !3
  %153 = load i64, ptr %11, align 8, !tbaa !8
  call void @rsaz_512_sqr(ptr noundef %150, ptr noundef %151, ptr noundef %152, i64 noundef %153, i32 noundef 4)
  %154 = load ptr, ptr %16, align 8, !tbaa !3
  %155 = load ptr, ptr %16, align 8, !tbaa !3
  %156 = load ptr, ptr %14, align 8, !tbaa !10
  %157 = load ptr, ptr %10, align 8, !tbaa !3
  %158 = load i64, ptr %11, align 8, !tbaa !8
  %159 = load i32, ptr %19, align 4, !tbaa !13
  %160 = and i32 %159, 15
  call void @rsaz_512_mul_gather4(ptr noundef %154, ptr noundef %155, ptr noundef %156, ptr noundef %157, i64 noundef %158, i32 noundef %160)
  br label %161

161:                                              ; preds = %132
  %162 = load i32, ptr %18, align 4, !tbaa !13
  %163 = add nsw i32 %162, -1
  store i32 %163, ptr %18, align 4, !tbaa !13
  br label %129, !llvm.loop !18

164:                                              ; preds = %129
  %165 = load ptr, ptr %7, align 8, !tbaa !3
  %166 = load ptr, ptr %16, align 8, !tbaa !3
  %167 = load ptr, ptr %10, align 8, !tbaa !3
  %168 = load i64, ptr %11, align 8, !tbaa !8
  call void @rsaz_512_mul_by_one(ptr noundef %165, ptr noundef %166, ptr noundef %167, i64 noundef %168)
  %169 = load ptr, ptr %7, align 8, !tbaa !3
  %170 = load ptr, ptr %10, align 8, !tbaa !3
  %171 = getelementptr inbounds [8 x i64], ptr %20, i64 0, i64 0
  %172 = call i64 @bn_reduce_once_in_place(ptr noundef %169, i64 noundef 0, ptr noundef %170, ptr noundef %171, i64 noundef 8)
  %173 = getelementptr inbounds [1216 x i8], ptr %13, i64 0, i64 0
  call void @OPENSSL_cleanse(ptr noundef %173, i64 noundef 1216)
  %174 = getelementptr inbounds [8 x i64], ptr %20, i64 0, i64 0
  call void @OPENSSL_cleanse(ptr noundef %174, i64 noundef 64)
  call void @llvm.lifetime.end.p0(i64 64, ptr %20) #4
  call void @llvm.lifetime.end.p0(i64 4, ptr %19) #4
  call void @llvm.lifetime.end.p0(i64 4, ptr %18) #4
  call void @llvm.lifetime.end.p0(i64 8, ptr %17) #4
  call void @llvm.lifetime.end.p0(i64 8, ptr %16) #4
  call void @llvm.lifetime.end.p0(i64 8, ptr %15) #4
  call void @llvm.lifetime.end.p0(i64 8, ptr %14) #4
  call void @llvm.lifetime.end.p0(i64 1216, ptr %13) #4
  ret void
}