; Function Attrs: nounwind uwtable
define void @RSAZ_512_mod_exp(ptr noundef %0, ptr noundef %1, ptr noundef readonly captures(none) %2, ptr noundef %3, i64 noundef %4, ptr noundef %5) local_unnamed_addr #0 {
  %7 = alloca [1216 x i8], align 16
  %8 = alloca [8 x i64], align 16
  call void @llvm.lifetime.start.p0(i64 1216, ptr nonnull %7) #3
  %9 = ptrtoint ptr %7 to i64
  %10 = and i64 %9, 48
  %11 = sub nuw nsw i64 64, %10
  %12 = getelementptr inbounds nuw i8, ptr %7, i64 %11
  %13 = getelementptr inbounds nuw i8, ptr %12, i64 1024
  %14 = getelementptr inbounds nuw i8, ptr %12, i64 1088
  call void @llvm.lifetime.start.p0(i64 64, ptr nonnull %8) #3
  %15 = load i64, ptr %3, align 8, !tbaa !9
  %16 = sub i64 0, %15
  store i64 %16, ptr %14, align 16, !tbaa !9
  %17 = getelementptr inbounds nuw i8, ptr %3, i64 8
  %18 = load i64, ptr %17, align 8, !tbaa !9
  %19 = xor i64 %18, -1
  %20 = getelementptr inbounds nuw i8, ptr %12, i64 1096
  store i64 %19, ptr %20, align 8, !tbaa !9
  %21 = getelementptr inbounds nuw i8, ptr %3, i64 16
  %22 = load i64, ptr %21, align 8, !tbaa !9
  %23 = xor i64 %22, -1
  %24 = getelementptr inbounds nuw i8, ptr %12, i64 1104
  store i64 %23, ptr %24, align 16, !tbaa !9
  %25 = getelementptr inbounds nuw i8, ptr %3, i64 24
  %26 = load i64, ptr %25, align 8, !tbaa !9
  %27 = xor i64 %26, -1
  %28 = getelementptr inbounds nuw i8, ptr %12, i64 1112
  store i64 %27, ptr %28, align 8, !tbaa !9
  %29 = getelementptr inbounds nuw i8, ptr %3, i64 32
  %30 = load i64, ptr %29, align 8, !tbaa !9
  %31 = xor i64 %30, -1
  %32 = getelementptr inbounds nuw i8, ptr %12, i64 1120
  store i64 %31, ptr %32, align 16, !tbaa !9
  %33 = getelementptr inbounds nuw i8, ptr %3, i64 40
  %34 = load i64, ptr %33, align 8, !tbaa !9
  %35 = xor i64 %34, -1
  %36 = getelementptr inbounds nuw i8, ptr %12, i64 1128
  store i64 %35, ptr %36, align 8, !tbaa !9
  %37 = getelementptr inbounds nuw i8, ptr %3, i64 48
  %38 = load i64, ptr %37, align 8, !tbaa !9
  %39 = xor i64 %38, -1
  %40 = getelementptr inbounds nuw i8, ptr %12, i64 1136
  store i64 %39, ptr %40, align 16, !tbaa !9
  %41 = getelementptr inbounds nuw i8, ptr %3, i64 56
  %42 = load i64, ptr %41, align 8, !tbaa !9
  %43 = xor i64 %42, -1
  %44 = getelementptr inbounds nuw i8, ptr %12, i64 1144
  store i64 %43, ptr %44, align 8, !tbaa !9
  call void @rsaz_512_scatter4(ptr noundef nonnull %12, ptr noundef nonnull %14, i32 noundef 0) #3
  call void @rsaz_512_mul(ptr noundef nonnull %13, ptr noundef %1, ptr noundef %5, ptr noundef nonnull %3, i64 noundef %4) #3
  call void @rsaz_512_scatter4(ptr noundef nonnull %12, ptr noundef nonnull %13, i32 noundef 1) #3
  call void @rsaz_512_sqr(ptr noundef nonnull %14, ptr noundef nonnull %13, ptr noundef nonnull %3, i64 noundef %4, i32 noundef 1) #3
  call void @rsaz_512_scatter4(ptr noundef nonnull %12, ptr noundef nonnull %14, i32 noundef 2) #3
  br label %45

45:                                               ; preds = %6, %45
  %.085 = phi i32 [ 3, %6 ], [ %46, %45 ]
  call void @rsaz_512_mul_scatter4(ptr noundef nonnull %14, ptr noundef nonnull %13, ptr noundef nonnull %3, i64 noundef %4, ptr noundef nonnull %12, i32 noundef %.085) #3
  %46 = add nuw nsw i32 %.085, 1
  %exitcond.not = icmp eq i32 %46, 16
  br i1 %exitcond.not, label %47, label %45, !llvm.loop !12

47:                                               ; preds = %45
  %48 = getelementptr inbounds nuw i8, ptr %2, i64 63
  %49 = load i8, ptr %48, align 1, !tbaa !3
  %50 = zext i8 %49 to i32
  %51 = lshr i32 %50, 4
  call void @rsaz_512_gather4(ptr noundef nonnull %14, ptr noundef nonnull %12, i32 noundef %51) #3
  call void @rsaz_512_sqr(ptr noundef nonnull %14, ptr noundef nonnull %14, ptr noundef nonnull %3, i64 noundef %4, i32 noundef 4) #3
  %52 = and i32 %50, 15
  call void @rsaz_512_mul_gather4(ptr noundef nonnull %14, ptr noundef nonnull %14, ptr noundef nonnull %12, ptr noundef nonnull %3, i64 noundef %4, i32 noundef %52) #3
  br label %53

53:                                               ; preds = %47, %53
  %indvars.iv = phi i64 [ 62, %47 ], [ %indvars.iv.next, %53 ]
  %54 = getelementptr inbounds nuw i8, ptr %2, i64 %indvars.iv
  %55 = load i8, ptr %54, align 1, !tbaa !3
  %56 = zext i8 %55 to i32
  call void @rsaz_512_sqr(ptr noundef nonnull %14, ptr noundef nonnull %14, ptr noundef nonnull %3, i64 noundef %4, i32 noundef 4) #3
  %57 = lshr i32 %56, 4
  call void @rsaz_512_mul_gather4(ptr noundef nonnull %14, ptr noundef nonnull %14, ptr noundef nonnull %12, ptr noundef nonnull %3, i64 noundef %4, i32 noundef %57) #3
  call void @rsaz_512_sqr(ptr noundef nonnull %14, ptr noundef nonnull %14, ptr noundef nonnull %3, i64 noundef %4, i32 noundef 4) #3
  %58 = and i32 %56, 15
  call void @rsaz_512_mul_gather4(ptr noundef nonnull %14, ptr noundef nonnull %14, ptr noundef nonnull %12, ptr noundef nonnull %3, i64 noundef %4, i32 noundef %58) #3
  %indvars.iv.next = add nsw i64 %indvars.iv, -1
  %.not = icmp eq i64 %indvars.iv, 0
  br i1 %.not, label %59, label %53, !llvm.loop !13

59:                                               ; preds = %53
  call void @rsaz_512_mul_by_one(ptr noundef %0, ptr noundef nonnull %14, ptr noundef nonnull %3, i64 noundef %4) #3
  %60 = call i64 @bn_sub_words(ptr noundef nonnull %8, ptr noundef %0, ptr noundef nonnull %3, i32 noundef 8) #3
  %61 = sub i64 0, %60
  %62 = call i64 asm "", "=r,0,~{dirflag},~{fpsr},~{flags}"(i64 %61) #4, !srcloc !8
  %63 = add i64 %60, -1
  %64 = call i64 asm "", "=r,0,~{dirflag},~{fpsr},~{flags}"(i64 %63) #4, !srcloc !8
  br label %65

65:                                               ; preds = %65, %59
  %.09.i.i = phi i64 [ 0, %59 ], [ %73, %65 ]
  %66 = getelementptr inbounds nuw i64, ptr %0, i64 %.09.i.i
  %67 = load i64, ptr %66, align 8, !tbaa !9
  %68 = getelementptr inbounds nuw i64, ptr %8, i64 %.09.i.i
  %69 = load i64, ptr %68, align 8, !tbaa !9
  %70 = and i64 %67, %62
  %71 = and i64 %69, %64
  %72 = or i64 %71, %70
  store i64 %72, ptr %66, align 8, !tbaa !9
  %73 = add nuw nsw i64 %.09.i.i, 1
  %exitcond.not.i.i = icmp eq i64 %73, 8
  br i1 %exitcond.not.i.i, label %bn_reduce_once_in_place.exit, label %65, !llvm.loop !11

bn_reduce_once_in_place.exit:                     ; preds = %65
  call void @OPENSSL_cleanse(ptr noundef nonnull %7, i64 noundef 1216) #3
  call void @OPENSSL_cleanse(ptr noundef nonnull %8, i64 noundef 64) #3
  call void @llvm.lifetime.end.p0(i64 64, ptr nonnull %8) #3
  call void @llvm.lifetime.end.p0(i64 1216, ptr nonnull %7) #3
  ret void
}